GAS LISTING C:\Users\RANDOH~1\AppData\Local\Temp/ccNThnur.s 			page 1


   1               		.file	"main.c"
   2               	__SREG__ = 0x3f
   3               	__SP_H__ = 0x3e
   4               	__SP_L__ = 0x3d
   5               	__CCP__  = 0x34
   6               	__tmp_reg__ = 0
   7               	__zero_reg__ = 1
   8               		.section	.debug_abbrev,"",@progbits
   9               	.Ldebug_abbrev0:
  10               		.section	.debug_info,"",@progbits
  11               	.Ldebug_info0:
  12               		.section	.debug_line,"",@progbits
  13               	.Ldebug_line0:
  14               		.text
  15               	.Ltext0:
  16               	.global	SPI_txrx
  17               		.type	SPI_txrx, @function
  18               	SPI_txrx:
  19               	.LFB2:
  20               	.LM1:
  21               	.LVL0:
  22               	/* prologue: function */
  23               	/* frame size = 0 */
  24               	.LM2:
  25 0000 2A98      		cbi 37-32,2
  26               	.LM3:
  27 0002 8EBD      		out 78-32,r24
  28               	.L2:
  29               	.LM4:
  30 0004 0DB4      		in __tmp_reg__,77-32
  31 0006 07FE      		sbrs __tmp_reg__,7
  32 0008 00C0      		rjmp .L2
  33               	.LM5:
  34 000a 2A9A      		sbi 37-32,2
  35               	.LM6:
  36 000c 8EB5      		in r24,78-32
  37               	.LVL1:
  38               	/* epilogue start */
  39               	.LM7:
  40 000e 0895      		ret
  41               	.LFE2:
  42               		.size	SPI_txrx, .-SPI_txrx
  43               	.global	main
  44               		.type	main, @function
  45               	main:
  46               	.LFB3:
  47               	.LM8:
  48               	/* prologue: function */
  49               	/* frame size = 0 */
  50               	.LM9:
  51 0010 0E94 0000 		call SPI_init
  52               	.L7:
  53 0014 00C0      		rjmp .L7
  54               	.LFE3:
  55               		.size	main, .-main
  56               		.section	.debug_frame,"",@progbits
  57               	.Lframe0:
GAS LISTING C:\Users\RANDOH~1\AppData\Local\Temp/ccNThnur.s 			page 2


  58 0000 0C00 0000 		.long	.LECIE0-.LSCIE0
  59               	.LSCIE0:
  60 0004 FFFF FFFF 		.long	0xffffffff
  61 0008 01        		.byte	0x1
  62 0009 00        		.string	""
  63 000a 01        		.uleb128 0x1
  64 000b 7F        		.sleb128 -1
  65 000c 24        		.byte	0x24
  66 000d 0C        		.byte	0xc
  67 000e 20        		.uleb128 0x20
  68 000f 00        		.uleb128 0x0
  69               		.p2align	2
  70               	.LECIE0:
  71               	.LSFDE0:
  72 0010 0C00 0000 		.long	.LEFDE0-.LASFDE0
  73               	.LASFDE0:
  74 0014 0000 0000 		.long	.Lframe0
  75 0018 0000 0000 		.long	.LFB2
  76 001c 1000 0000 		.long	.LFE2-.LFB2
  77               		.p2align	2
  78               	.LEFDE0:
  79               	.LSFDE2:
  80 0020 0C00 0000 		.long	.LEFDE2-.LASFDE2
  81               	.LASFDE2:
  82 0024 0000 0000 		.long	.Lframe0
  83 0028 0000 0000 		.long	.LFB3
  84 002c 0600 0000 		.long	.LFE3-.LFB3
  85               		.p2align	2
  86               	.LEFDE2:
  87               		.text
  88               	.Letext0:
  89               		.section	.debug_loc,"",@progbits
  90               	.Ldebug_loc0:
  91               	.LLST1:
  92 0000 0000 0000 		.long	.LVL0-.Ltext0
  93 0004 0E00 0000 		.long	.LVL1-.Ltext0
  94 0008 0100      		.word	0x1
  95 000a 68        		.byte	0x68
  96 000b 0000 0000 		.long	0x0
  97 000f 0000 0000 		.long	0x0
  98               		.section	.debug_info
  99 0000 A800 0000 		.long	0xa8
 100 0004 0200      		.word	0x2
 101 0006 0000 0000 		.long	.Ldebug_abbrev0
 102 000a 04        		.byte	0x4
 103 000b 01        		.uleb128 0x1
 104 000c 0000 0000 		.long	.LASF7
 105 0010 01        		.byte	0x1
 106 0011 0000 0000 		.long	.LASF8
 107 0015 0000 0000 		.long	.LASF9
 108 0019 0000 0000 		.long	.Ltext0
 109 001d 0000 0000 		.long	.Letext0
 110 0021 0000 0000 		.long	.Ldebug_line0
 111 0025 02        		.uleb128 0x2
 112 0026 01        		.byte	0x1
 113 0027 06        		.byte	0x6
 114 0028 0000 0000 		.long	.LASF0
GAS LISTING C:\Users\RANDOH~1\AppData\Local\Temp/ccNThnur.s 			page 3


 115 002c 03        		.uleb128 0x3
 116 002d 0000 0000 		.long	.LASF10
 117 0031 03        		.byte	0x3
 118 0032 7A        		.byte	0x7a
 119 0033 3700 0000 		.long	0x37
 120 0037 02        		.uleb128 0x2
 121 0038 01        		.byte	0x1
 122 0039 08        		.byte	0x8
 123 003a 0000 0000 		.long	.LASF1
 124 003e 04        		.uleb128 0x4
 125 003f 02        		.byte	0x2
 126 0040 05        		.byte	0x5
 127 0041 696E 7400 		.string	"int"
 128 0045 02        		.uleb128 0x2
 129 0046 02        		.byte	0x2
 130 0047 07        		.byte	0x7
 131 0048 0000 0000 		.long	.LASF2
 132 004c 02        		.uleb128 0x2
 133 004d 04        		.byte	0x4
 134 004e 05        		.byte	0x5
 135 004f 0000 0000 		.long	.LASF3
 136 0053 02        		.uleb128 0x2
 137 0054 04        		.byte	0x4
 138 0055 07        		.byte	0x7
 139 0056 0000 0000 		.long	.LASF4
 140 005a 02        		.uleb128 0x2
 141 005b 08        		.byte	0x8
 142 005c 05        		.byte	0x5
 143 005d 0000 0000 		.long	.LASF5
 144 0061 02        		.uleb128 0x2
 145 0062 08        		.byte	0x8
 146 0063 07        		.byte	0x7
 147 0064 0000 0000 		.long	.LASF6
 148 0068 05        		.uleb128 0x5
 149 0069 01        		.byte	0x1
 150 006a 0000 0000 		.long	.LASF11
 151 006e 01        		.byte	0x1
 152 006f 08        		.byte	0x8
 153 0070 01        		.byte	0x1
 154 0071 2C00 0000 		.long	0x2c
 155 0075 0000 0000 		.long	.LFB2
 156 0079 0000 0000 		.long	.LFE2
 157 007d 02        		.byte	0x2
 158 007e 90        		.byte	0x90
 159 007f 20        		.uleb128 0x20
 160 0080 9400 0000 		.long	0x94
 161 0084 06        		.uleb128 0x6
 162 0085 0000 0000 		.long	.LASF12
 163 0089 01        		.byte	0x1
 164 008a 07        		.byte	0x7
 165 008b 2C00 0000 		.long	0x2c
 166 008f 0000 0000 		.long	.LLST1
 167 0093 00        		.byte	0x0
 168 0094 07        		.uleb128 0x7
 169 0095 01        		.byte	0x1
 170 0096 0000 0000 		.long	.LASF13
 171 009a 02        		.byte	0x2
GAS LISTING C:\Users\RANDOH~1\AppData\Local\Temp/ccNThnur.s 			page 4


 172 009b 09        		.byte	0x9
 173 009c 3E00 0000 		.long	0x3e
 174 00a0 0000 0000 		.long	.LFB3
 175 00a4 0000 0000 		.long	.LFE3
 176 00a8 02        		.byte	0x2
 177 00a9 90        		.byte	0x90
 178 00aa 20        		.uleb128 0x20
 179 00ab 00        		.byte	0x0
 180               		.section	.debug_abbrev
 181 0000 01        		.uleb128 0x1
 182 0001 11        		.uleb128 0x11
 183 0002 01        		.byte	0x1
 184 0003 25        		.uleb128 0x25
 185 0004 0E        		.uleb128 0xe
 186 0005 13        		.uleb128 0x13
 187 0006 0B        		.uleb128 0xb
 188 0007 03        		.uleb128 0x3
 189 0008 0E        		.uleb128 0xe
 190 0009 1B        		.uleb128 0x1b
 191 000a 0E        		.uleb128 0xe
 192 000b 11        		.uleb128 0x11
 193 000c 01        		.uleb128 0x1
 194 000d 12        		.uleb128 0x12
 195 000e 01        		.uleb128 0x1
 196 000f 10        		.uleb128 0x10
 197 0010 06        		.uleb128 0x6
 198 0011 00        		.byte	0x0
 199 0012 00        		.byte	0x0
 200 0013 02        		.uleb128 0x2
 201 0014 24        		.uleb128 0x24
 202 0015 00        		.byte	0x0
 203 0016 0B        		.uleb128 0xb
 204 0017 0B        		.uleb128 0xb
 205 0018 3E        		.uleb128 0x3e
 206 0019 0B        		.uleb128 0xb
 207 001a 03        		.uleb128 0x3
 208 001b 0E        		.uleb128 0xe
 209 001c 00        		.byte	0x0
 210 001d 00        		.byte	0x0
 211 001e 03        		.uleb128 0x3
 212 001f 16        		.uleb128 0x16
 213 0020 00        		.byte	0x0
 214 0021 03        		.uleb128 0x3
 215 0022 0E        		.uleb128 0xe
 216 0023 3A        		.uleb128 0x3a
 217 0024 0B        		.uleb128 0xb
 218 0025 3B        		.uleb128 0x3b
 219 0026 0B        		.uleb128 0xb
 220 0027 49        		.uleb128 0x49
 221 0028 13        		.uleb128 0x13
 222 0029 00        		.byte	0x0
 223 002a 00        		.byte	0x0
 224 002b 04        		.uleb128 0x4
 225 002c 24        		.uleb128 0x24
 226 002d 00        		.byte	0x0
 227 002e 0B        		.uleb128 0xb
 228 002f 0B        		.uleb128 0xb
GAS LISTING C:\Users\RANDOH~1\AppData\Local\Temp/ccNThnur.s 			page 5


 229 0030 3E        		.uleb128 0x3e
 230 0031 0B        		.uleb128 0xb
 231 0032 03        		.uleb128 0x3
 232 0033 08        		.uleb128 0x8
 233 0034 00        		.byte	0x0
 234 0035 00        		.byte	0x0
 235 0036 05        		.uleb128 0x5
 236 0037 2E        		.uleb128 0x2e
 237 0038 01        		.byte	0x1
 238 0039 3F        		.uleb128 0x3f
 239 003a 0C        		.uleb128 0xc
 240 003b 03        		.uleb128 0x3
 241 003c 0E        		.uleb128 0xe
 242 003d 3A        		.uleb128 0x3a
 243 003e 0B        		.uleb128 0xb
 244 003f 3B        		.uleb128 0x3b
 245 0040 0B        		.uleb128 0xb
 246 0041 27        		.uleb128 0x27
 247 0042 0C        		.uleb128 0xc
 248 0043 49        		.uleb128 0x49
 249 0044 13        		.uleb128 0x13
 250 0045 11        		.uleb128 0x11
 251 0046 01        		.uleb128 0x1
 252 0047 12        		.uleb128 0x12
 253 0048 01        		.uleb128 0x1
 254 0049 40        		.uleb128 0x40
 255 004a 0A        		.uleb128 0xa
 256 004b 01        		.uleb128 0x1
 257 004c 13        		.uleb128 0x13
 258 004d 00        		.byte	0x0
 259 004e 00        		.byte	0x0
 260 004f 06        		.uleb128 0x6
 261 0050 05        		.uleb128 0x5
 262 0051 00        		.byte	0x0
 263 0052 03        		.uleb128 0x3
 264 0053 0E        		.uleb128 0xe
 265 0054 3A        		.uleb128 0x3a
 266 0055 0B        		.uleb128 0xb
 267 0056 3B        		.uleb128 0x3b
 268 0057 0B        		.uleb128 0xb
 269 0058 49        		.uleb128 0x49
 270 0059 13        		.uleb128 0x13
 271 005a 02        		.uleb128 0x2
 272 005b 06        		.uleb128 0x6
 273 005c 00        		.byte	0x0
 274 005d 00        		.byte	0x0
 275 005e 07        		.uleb128 0x7
 276 005f 2E        		.uleb128 0x2e
 277 0060 00        		.byte	0x0
 278 0061 3F        		.uleb128 0x3f
 279 0062 0C        		.uleb128 0xc
 280 0063 03        		.uleb128 0x3
 281 0064 0E        		.uleb128 0xe
 282 0065 3A        		.uleb128 0x3a
 283 0066 0B        		.uleb128 0xb
 284 0067 3B        		.uleb128 0x3b
 285 0068 0B        		.uleb128 0xb
GAS LISTING C:\Users\RANDOH~1\AppData\Local\Temp/ccNThnur.s 			page 6


 286 0069 49        		.uleb128 0x49
 287 006a 13        		.uleb128 0x13
 288 006b 11        		.uleb128 0x11
 289 006c 01        		.uleb128 0x1
 290 006d 12        		.uleb128 0x12
 291 006e 01        		.uleb128 0x1
 292 006f 40        		.uleb128 0x40
 293 0070 0A        		.uleb128 0xa
 294 0071 00        		.byte	0x0
 295 0072 00        		.byte	0x0
 296 0073 00        		.byte	0x0
 297               		.section	.debug_pubnames,"",@progbits
 298 0000 2400 0000 		.long	0x24
 299 0004 0200      		.word	0x2
 300 0006 0000 0000 		.long	.Ldebug_info0
 301 000a AC00 0000 		.long	0xac
 302 000e 6800 0000 		.long	0x68
 303 0012 5350 495F 		.string	"SPI_txrx"
 303      7478 7278 
 303      00
 304 001b 9400 0000 		.long	0x94
 305 001f 6D61 696E 		.string	"main"
 305      00
 306 0024 0000 0000 		.long	0x0
 307               		.section	.debug_aranges,"",@progbits
 308 0000 1C00 0000 		.long	0x1c
 309 0004 0200      		.word	0x2
 310 0006 0000 0000 		.long	.Ldebug_info0
 311 000a 04        		.byte	0x4
 312 000b 00        		.byte	0x0
 313 000c 0000      		.word	0x0
 314 000e 0000      		.word	0x0
 315 0010 0000 0000 		.long	.Ltext0
 316 0014 1600 0000 		.long	.Letext0-.Ltext0
 317 0018 0000 0000 		.long	0x0
 318 001c 0000 0000 		.long	0x0
 319               		.section	.debug_line
 320 0000 BE00 0000 		.long	.LELT0-.LSLT0
 321               	.LSLT0:
 322 0004 0200      		.word	0x2
 323 0006 6400 0000 		.long	.LELTP0-.LASLTP0
 324               	.LASLTP0:
 325 000a 01        		.byte	0x1
 326 000b 01        		.byte	0x1
 327 000c F6        		.byte	0xf6
 328 000d F5        		.byte	0xf5
 329 000e 0A        		.byte	0xa
 330 000f 00        		.byte	0x0
 331 0010 01        		.byte	0x1
 332 0011 01        		.byte	0x1
 333 0012 01        		.byte	0x1
 334 0013 01        		.byte	0x1
 335 0014 00        		.byte	0x0
 336 0015 00        		.byte	0x0
 337 0016 00        		.byte	0x0
 338 0017 01        		.byte	0x1
 339 0018 633A 2F77 		.ascii	"c:/winavr-20100110/lib/gcc/../../avr/include"
GAS LISTING C:\Users\RANDOH~1\AppData\Local\Temp/ccNThnur.s 			page 7


 339      696E 6176 
 339      722D 3230 
 339      3130 3031 
 339      3130 2F6C 
 340 0044 00        		.byte	0
 341 0045 696E 636C 		.ascii	"include"
 341      7564 65
 342 004c 00        		.byte	0
 343 004d 00        		.byte	0x0
 344 004e 7370 692E 		.string	"spi.h"
 344      6800 
 345 0054 02        		.uleb128 0x2
 346 0055 00        		.uleb128 0x0
 347 0056 00        		.uleb128 0x0
 348 0057 6D61 696E 		.string	"main.c"
 348      2E63 00
 349 005e 00        		.uleb128 0x0
 350 005f 00        		.uleb128 0x0
 351 0060 00        		.uleb128 0x0
 352 0061 7374 6469 		.string	"stdint.h"
 352      6E74 2E68 
 352      00
 353 006a 01        		.uleb128 0x1
 354 006b 00        		.uleb128 0x0
 355 006c 00        		.uleb128 0x0
 356 006d 00        		.byte	0x0
 357               	.LELTP0:
 358 006e 00        		.byte	0x0
 359 006f 05        		.uleb128 0x5
 360 0070 02        		.byte	0x2
 361 0071 0000 0000 		.long	.LM1
 362 0075 1B        		.byte	0x1b
 363 0076 00        		.byte	0x0
 364 0077 05        		.uleb128 0x5
 365 0078 02        		.byte	0x2
 366 0079 0000 0000 		.long	.LM2
 367 007d 15        		.byte	0x15
 368 007e 00        		.byte	0x0
 369 007f 05        		.uleb128 0x5
 370 0080 02        		.byte	0x2
 371 0081 0000 0000 		.long	.LM3
 372 0085 15        		.byte	0x15
 373 0086 00        		.byte	0x0
 374 0087 05        		.uleb128 0x5
 375 0088 02        		.byte	0x2
 376 0089 0000 0000 		.long	.LM4
 377 008d 15        		.byte	0x15
 378 008e 00        		.byte	0x0
 379 008f 05        		.uleb128 0x5
 380 0090 02        		.byte	0x2
 381 0091 0000 0000 		.long	.LM5
 382 0095 15        		.byte	0x15
 383 0096 00        		.byte	0x0
 384 0097 05        		.uleb128 0x5
 385 0098 02        		.byte	0x2
 386 0099 0000 0000 		.long	.LM6
 387 009d 15        		.byte	0x15
GAS LISTING C:\Users\RANDOH~1\AppData\Local\Temp/ccNThnur.s 			page 8


 388 009e 00        		.byte	0x0
 389 009f 05        		.uleb128 0x5
 390 00a0 02        		.byte	0x2
 391 00a1 0000 0000 		.long	.LM7
 392 00a5 15        		.byte	0x15
 393 00a6 00        		.byte	0x0
 394 00a7 05        		.uleb128 0x5
 395 00a8 02        		.byte	0x2
 396 00a9 0000 0000 		.long	.LM8
 397 00ad 04        		.byte	0x4
 398 00ae 02        		.uleb128 0x2
 399 00af 0F        		.byte	0xf
 400 00b0 00        		.byte	0x0
 401 00b1 05        		.uleb128 0x5
 402 00b2 02        		.byte	0x2
 403 00b3 0000 0000 		.long	.LM9
 404 00b7 16        		.byte	0x16
 405 00b8 00        		.byte	0x0
 406 00b9 05        		.uleb128 0x5
 407 00ba 02        		.byte	0x2
 408 00bb 0000 0000 		.long	.Letext0
 409 00bf 00        		.byte	0x0
 410 00c0 01        		.uleb128 0x1
 411 00c1 01        		.byte	0x1
 412               	.LELT0:
 413 00c2 1600 0000 		.section	.debug_str,"MS",@progbits,1
 413      0200 1000 
 413      0000 0101 
 413      FB0E 0A00 
 413      0101 0101 
 414               	.LASF2:
 415 0000 756E 7369 		.string	"unsigned int"
 415      676E 6564 
 415      2069 6E74 
 415      00
 416               	.LASF10:
 417 000d 7569 6E74 		.string	"uint8_t"
 417      385F 7400 
 418               	.LASF4:
 419 0015 6C6F 6E67 		.string	"long unsigned int"
 419      2075 6E73 
 419      6967 6E65 
 419      6420 696E 
 419      7400 
 420               	.LASF7:
 421 0027 474E 5520 		.string	"GNU C 4.3.3"
 421      4320 342E 
 421      332E 3300 
 422               	.LASF0:
 423 0033 7369 676E 		.string	"signed char"
 423      6564 2063 
 423      6861 7200 
 424               	.LASF6:
 425 003f 6C6F 6E67 		.string	"long long unsigned int"
 425      206C 6F6E 
 425      6720 756E 
 425      7369 676E 
GAS LISTING C:\Users\RANDOH~1\AppData\Local\Temp/ccNThnur.s 			page 9


 425      6564 2069 
 426               	.LASF8:
 427 0056 6D61 696E 		.string	"main.c"
 427      2E63 00
 428               	.LASF3:
 429 005d 6C6F 6E67 		.string	"long int"
 429      2069 6E74 
 429      00
 430               	.LASF1:
 431 0066 756E 7369 		.string	"unsigned char"
 431      676E 6564 
 431      2063 6861 
 431      7200 
 432               	.LASF9:
 433 0074 633A 5C75 		.ascii	"c:\\users\\rando hinn\\documents\\ahh"
 433      7365 7273 
 433      5C72 616E 
 433      646F 2068 
 433      696E 6E5C 
 434 0095 6161 5C30 		.string	"aa\\00_oskariii\\brains\\electronics\\firmware\\00_can_mootoridraiver"
 434      305F 6F73 
 434      6B61 7269 
 434      6969 5C62 
 434      7261 696E 
 435               	.LASF13:
 436 00d6 6D61 696E 		.string	"main"
 436      00
 437               	.LASF12:
 438 00db 6461 7461 		.string	"data"
 438      00
 439               	.LASF11:
 440 00e0 5350 495F 		.string	"SPI_txrx"
 440      7478 7278 
 440      00
 441               	.LASF5:
 442 00e9 6C6F 6E67 		.string	"long long int"
 442      206C 6F6E 
 442      6720 696E 
 442      7400 
GAS LISTING C:\Users\RANDOH~1\AppData\Local\Temp/ccNThnur.s 			page 10


DEFINED SYMBOLS
                            *ABS*:00000000 main.c
C:\Users\RANDOH~1\AppData\Local\Temp/ccNThnur.s:2      *ABS*:0000003f __SREG__
C:\Users\RANDOH~1\AppData\Local\Temp/ccNThnur.s:3      *ABS*:0000003e __SP_H__
C:\Users\RANDOH~1\AppData\Local\Temp/ccNThnur.s:4      *ABS*:0000003d __SP_L__
C:\Users\RANDOH~1\AppData\Local\Temp/ccNThnur.s:5      *ABS*:00000034 __CCP__
C:\Users\RANDOH~1\AppData\Local\Temp/ccNThnur.s:6      *ABS*:00000000 __tmp_reg__
C:\Users\RANDOH~1\AppData\Local\Temp/ccNThnur.s:7      *ABS*:00000001 __zero_reg__
C:\Users\RANDOH~1\AppData\Local\Temp/ccNThnur.s:18     .text:00000000 SPI_txrx
C:\Users\RANDOH~1\AppData\Local\Temp/ccNThnur.s:45     .text:00000010 main

UNDEFINED SYMBOLS
SPI_init
